; ModuleID = '7/932.c'
source_filename = "7/932.c"
target datalayout = "e-m:e-p270:32:32-p271:32:32-p272:64:64-i64:64-f80:128-n8:16:32:64-S128"
target triple = "x86_64-pc-linux-gnu"

@.str = private unnamed_addr constant [7 x i8] c"%s%s%s\00", align 1
@.str.1 = private unnamed_addr constant [3 x i8] c"%s\00", align 1

; Function Attrs: noinline nounwind uwtable
define dso_local i32 @main() #0 {
  %1 = alloca i32, align 4
  %2 = alloca [256 x i8], align 16
  %3 = alloca [256 x i8], align 16
  %4 = alloca [256 x i8], align 16
  %5 = alloca [256 x i8], align 16
  %6 = alloca i32, align 4
  %7 = alloca i32, align 4
  %8 = alloca i32, align 4
  %9 = alloca i32, align 4
  store i32 0, i32* %1, align 4
  %10 = getelementptr inbounds [256 x i8], [256 x i8]* %2, i64 0, i64 0
  %11 = getelementptr inbounds [256 x i8], [256 x i8]* %3, i64 0, i64 0
  %12 = getelementptr inbounds [256 x i8], [256 x i8]* %4, i64 0, i64 0
  %13 = call i32 (i8*, ...) @__isoc99_scanf(i8* getelementptr inbounds ([7 x i8], [7 x i8]* @.str, i64 0, i64 0), i8* %10, i8* %11, i8* %12)
  store i32 0, i32* %8, align 4
  store i32 0, i32* %6, align 4
  br label %14

14:                                               ; preds = %77, %0
  %15 = load i32, i32* %6, align 4
  %16 = sext i32 %15 to i64
  %17 = getelementptr inbounds [256 x i8], [256 x i8]* %2, i64 0, i64 %16
  %18 = load i8, i8* %17, align 1
  %19 = icmp ne i8 %18, 0
  br i1 %19, label %20, label %80

20:                                               ; preds = %14
  store i32 1, i32* %9, align 4
  store i32 0, i32* %7, align 4
  br label %21

21:                                               ; preds = %43, %20
  %22 = load i32, i32* %7, align 4
  %23 = sext i32 %22 to i64
  %24 = getelementptr inbounds [256 x i8], [256 x i8]* %3, i64 0, i64 %23
  %25 = load i8, i8* %24, align 1
  %26 = icmp ne i8 %25, 0
  br i1 %26, label %27, label %46

27:                                               ; preds = %21
  %28 = load i32, i32* %6, align 4
  %29 = load i32, i32* %7, align 4
  %30 = add nsw i32 %28, %29
  %31 = sext i32 %30 to i64
  %32 = getelementptr inbounds [256 x i8], [256 x i8]* %2, i64 0, i64 %31
  %33 = load i8, i8* %32, align 1
  %34 = sext i8 %33 to i32
  %35 = load i32, i32* %7, align 4
  %36 = sext i32 %35 to i64
  %37 = getelementptr inbounds [256 x i8], [256 x i8]* %3, i64 0, i64 %36
  %38 = load i8, i8* %37, align 1
  %39 = sext i8 %38 to i32
  %40 = icmp ne i32 %34, %39
  br i1 %40, label %41, label %42

41:                                               ; preds = %27
  store i32 0, i32* %9, align 4
  br label %42

42:                                               ; preds = %41, %27
  br label %43

43:                                               ; preds = %42
  %44 = load i32, i32* %7, align 4
  %45 = add nsw i32 %44, 1
  store i32 %45, i32* %7, align 4
  br label %21

46:                                               ; preds = %21
  %47 = load i32, i32* %9, align 4
  %48 = icmp eq i32 %47, 1
  br i1 %48, label %49, label %76

49:                                               ; preds = %46
  %50 = getelementptr inbounds [256 x i8], [256 x i8]* %5, i64 0, i64 0
  %51 = getelementptr inbounds [256 x i8], [256 x i8]* %2, i64 0, i64 0
  %52 = call i8* @strcpy(i8* %50, i8* %51) #4
  %53 = load i32, i32* %6, align 4
  %54 = sext i32 %53 to i64
  %55 = getelementptr inbounds [256 x i8], [256 x i8]* %5, i64 0, i64 %54
  store i8 0, i8* %55, align 1
  %56 = getelementptr inbounds [256 x i8], [256 x i8]* %5, i64 0, i64 0
  %57 = getelementptr inbounds [256 x i8], [256 x i8]* %4, i64 0, i64 0
  %58 = call i8* @strcat(i8* %56, i8* %57) #4
  %59 = getelementptr inbounds [256 x i8], [256 x i8]* %5, i64 0, i64 0
  %60 = load i32, i32* %6, align 4
  %61 = sext i32 %60 to i64
  %62 = getelementptr inbounds [256 x i8], [256 x i8]* %3, i64 0, i64 0
  %63 = call i64 @strlen(i8* %62) #5
  %64 = add i64 %61, %63
  %65 = getelementptr inbounds [256 x i8], [256 x i8]* %2, i64 0, i64 %64
  %66 = call i8* @strcat(i8* %59, i8* %65) #4
  %67 = getelementptr inbounds [256 x i8], [256 x i8]* %2, i64 0, i64 0
  %68 = getelementptr inbounds [256 x i8], [256 x i8]* %5, i64 0, i64 0
  %69 = call i8* @strcpy(i8* %67, i8* %68) #4
  %70 = getelementptr inbounds [256 x i8], [256 x i8]* %4, i64 0, i64 0
  %71 = call i64 @strlen(i8* %70) #5
  %72 = load i32, i32* %6, align 4
  %73 = sext i32 %72 to i64
  %74 = add i64 %73, %71
  %75 = trunc i64 %74 to i32
  store i32 %75, i32* %6, align 4
  br label %80

76:                                               ; preds = %46
  br label %77

77:                                               ; preds = %76
  %78 = load i32, i32* %6, align 4
  %79 = add nsw i32 %78, 1
  store i32 %79, i32* %6, align 4
  br label %14

80:                                               ; preds = %49, %14
  %81 = getelementptr inbounds [256 x i8], [256 x i8]* %2, i64 0, i64 0
  %82 = call i32 (i8*, ...) @printf(i8* getelementptr inbounds ([3 x i8], [3 x i8]* @.str.1, i64 0, i64 0), i8* %81)
  ret i32 0
}

declare dso_local i32 @__isoc99_scanf(i8*, ...) #1

; Function Attrs: nounwind
declare dso_local i8* @strcpy(i8*, i8*) #2

; Function Attrs: nounwind
declare dso_local i8* @strcat(i8*, i8*) #2

; Function Attrs: nounwind readonly
declare dso_local i64 @strlen(i8*) #3

declare dso_local i32 @printf(i8*, ...) #1


!llvm.module.flags = !{!0}
!llvm.ident = !{!1}

!0 = !{i32 1, !"wchar_size", i32 4}
!1 = !{!"clang version 10.0.0-4ubuntu1 "}
