; ModuleID = 'source-C-CXX/6/932.c'
source_filename = "source-C-CXX/6/932.c"
target datalayout = "e-m:e-p270:32:32-p271:32:32-p272:64:64-i64:64-f80:128-n8:16:32:64-S128"
target triple = "x86_64-pc-linux-gnu"

@.str = private unnamed_addr constant [7 x i8] c"%s%s%s\00", align 1
@.str.1 = private unnamed_addr constant [3 x i8] c"%s\00", align 1

; Function Attrs: nofree nounwind sspstrong uwtable
define dso_local i32 @main() local_unnamed_addr #0 {
  %1 = alloca [256 x i8], align 16
  %2 = alloca [256 x i8], align 16
  %3 = alloca [256 x i8], align 16
  %4 = alloca [256 x i8], align 16
  %5 = getelementptr inbounds [256 x i8], [256 x i8]* %1, i64 0, i64 0
  call void @llvm.lifetime.start.p0i8(i64 256, i8* nonnull %5) #5
  %6 = getelementptr inbounds [256 x i8], [256 x i8]* %2, i64 0, i64 0
  call void @llvm.lifetime.start.p0i8(i64 256, i8* nonnull %6) #5
  %7 = getelementptr inbounds [256 x i8], [256 x i8]* %3, i64 0, i64 0
  call void @llvm.lifetime.start.p0i8(i64 256, i8* nonnull %7) #5
  %8 = getelementptr inbounds [256 x i8], [256 x i8]* %4, i64 0, i64 0
  call void @llvm.lifetime.start.p0i8(i64 256, i8* nonnull %8) #5
  %9 = call i32 (i8*, ...) @__isoc99_scanf(i8* getelementptr inbounds ([7 x i8], [7 x i8]* @.str, i64 0, i64 0), i8* nonnull %5, i8* nonnull %6, i8* nonnull %7)
  %10 = load i8, i8* %6, align 16
  %11 = load i8, i8* %5, align 16, !tbaa !5
  %12 = icmp eq i8 %11, 0
  br i1 %12, label %49, label %13

13:                                               ; preds = %0
  %14 = icmp eq i8 %10, 0
  br i1 %14, label %34, label %15

15:                                               ; preds = %13, %44
  %16 = phi i64 [ %45, %44 ], [ 0, %13 ]
  br label %17

17:                                               ; preds = %15, %17
  %18 = phi i64 [ 0, %15 ], [ %26, %17 ]
  %19 = phi i8 [ %10, %15 ], [ %28, %17 ]
  %20 = phi i32 [ 1, %15 ], [ %25, %17 ]
  %21 = add nuw nsw i64 %18, %16
  %22 = getelementptr inbounds [256 x i8], [256 x i8]* %1, i64 0, i64 %21
  %23 = load i8, i8* %22, align 1, !tbaa !5
  %24 = icmp eq i8 %23, %19
  %25 = select i1 %24, i32 %20, i32 0
  %26 = add nuw nsw i64 %18, 1
  %27 = getelementptr inbounds [256 x i8], [256 x i8]* %2, i64 0, i64 %26
  %28 = load i8, i8* %27, align 1, !tbaa !5
  %29 = icmp eq i8 %28, 0
  br i1 %29, label %30, label %17, !llvm.loop !8

30:                                               ; preds = %17
  %31 = icmp eq i32 %25, 1
  br i1 %31, label %32, label %44

32:                                               ; preds = %30
  %33 = and i64 %16, 4294967295
  br label %34

34:                                               ; preds = %32, %13
  %35 = phi i64 [ 0, %13 ], [ %33, %32 ]
  %36 = call i8* @strcpy(i8* noundef nonnull %8, i8* noundef nonnull %5) #5
  %37 = getelementptr inbounds [256 x i8], [256 x i8]* %4, i64 0, i64 %35
  store i8 0, i8* %37, align 1, !tbaa !5
  %38 = call i8* @strcat(i8* noundef nonnull %8, i8* noundef nonnull %7) #5
  %39 = call i64 @strlen(i8* noundef nonnull %6) #6
  %40 = add i64 %39, %35
  %41 = getelementptr inbounds [256 x i8], [256 x i8]* %1, i64 0, i64 %40
  %42 = call i8* @strcat(i8* noundef nonnull %8, i8* noundef nonnull %41) #5
  %43 = call i8* @strcpy(i8* noundef nonnull %5, i8* noundef nonnull %8) #5
  br label %49

44:                                               ; preds = %30
  %45 = add nuw i64 %16, 1
  %46 = getelementptr inbounds [256 x i8], [256 x i8]* %1, i64 0, i64 %45
  %47 = load i8, i8* %46, align 1, !tbaa !5
  %48 = icmp eq i8 %47, 0
  br i1 %48, label %49, label %15, !llvm.loop !10

49:                                               ; preds = %44, %0, %34
  %50 = call i32 (i8*, ...) @printf(i8* nonnull dereferenceable(1) getelementptr inbounds ([3 x i8], [3 x i8]* @.str.1, i64 0, i64 0), i8* nonnull %5)
  call void @llvm.lifetime.end.p0i8(i64 256, i8* nonnull %8) #5
  call void @llvm.lifetime.end.p0i8(i64 256, i8* nonnull %7) #5
  call void @llvm.lifetime.end.p0i8(i64 256, i8* nonnull %6) #5
  call void @llvm.lifetime.end.p0i8(i64 256, i8* nonnull %5) #5
  ret i32 0
}

; Function Attrs: argmemonly mustprogress nofree nosync nounwind willreturn
declare void @llvm.lifetime.start.p0i8(i64 immarg, i8* nocapture) #1

; Function Attrs: nofree nounwind
declare noundef i32 @__isoc99_scanf(i8* nocapture noundef readonly, ...) local_unnamed_addr #2

; Function Attrs: argmemonly mustprogress nofree nounwind willreturn
declare i8* @strcpy(i8* noalias returned writeonly, i8* noalias nocapture readonly) local_unnamed_addr #3

; Function Attrs: argmemonly mustprogress nofree nounwind willreturn
declare i8* @strcat(i8* noalias returned, i8* noalias nocapture readonly) local_unnamed_addr #3

; Function Attrs: argmemonly mustprogress nofree nounwind readonly willreturn
declare i64 @strlen(i8* nocapture) local_unnamed_addr #4

; Function Attrs: argmemonly mustprogress nofree nosync nounwind willreturn
declare void @llvm.lifetime.end.p0i8(i64 immarg, i8* nocapture) #1

; Function Attrs: nofree nounwind
declare noundef i32 @printf(i8* nocapture noundef readonly, ...) local_unnamed_addr #2


!llvm.module.flags = !{!0, !1, !2, !3}
!llvm.ident = !{!4}

!0 = !{i32 1, !"wchar_size", i32 4}
!1 = !{i32 7, !"PIC Level", i32 2}
!2 = !{i32 7, !"PIE Level", i32 2}
!3 = !{i32 7, !"uwtable", i32 1}
!4 = !{!"clang version 13.0.0"}
!5 = !{!6, !6, i64 0}
!6 = !{!"omnipotent char", !7, i64 0}
!7 = !{!"Simple C/C++ TBAA"}
!8 = distinct !{!8, !9}
!9 = !{!"llvm.loop.mustprogress"}
!10 = distinct !{!10, !9}
